(lp0
(dp1
I1
F0.2790602543027226
sI2
F0.35816453465344517
sI3
F0.15222317381150546
sI4
F0.21055203723232674
sa(dp2
I1
(dp3
I1
F0.3908493040227309
sI2
F0.18938197908059773
sI3
F0.0770514911339938
sI4
F0.3427172257626776
ssI2
(dp4
I1
F0.43354011383893265
sI2
F0.2089676606207099
sI3
F0.19686737445155456
sI4
F0.16062485108880287
ssI3
(dp5
I1
F0.25
sI2
F0.20558981380760497
sI3
F0.22755393102410978
sI4
F0.31685625516828525
ssI4
(dp6
I1
F0.40571326405494107
sI2
F0.0654317928462989
sI3
F0.2502573746425905
sI4
F0.2785975684561695
ssa(dp7
I1
(dp8
S' '
p9
F0.03269460421184169
sS'a'
p10
F0.04355614844770868
sS'c'
p11
F0.03950967877277145
sS'b'
p12
F0.016283910704261547
sS'e'
p13
F0.032136282238962234
sS'd'
p14
F0.03147625183174127
sS'g'
p15
F0.03032942455722565
sS'f'
p16
F0.04290397601322368
sS'i'
p17
F0.011566712147464638
sS'h'
p18
F0.022643424730942417
sS'k'
p19
F0.0731576828982443
sS'j'
p20
F0.04680543649161188
sS'm'
p21
F0.029109586495125295
sS'l'
p22
F0.026972282703092196
sS'o'
p23
F0.025236668286891424
sS'n'
p24
F0.04085700852699021
sS'q'
p25
F0.04237598869719249
sS'p'
p26
F0.02270122770942445
sS's'
p27
F0.05137622818847731
sS'r'
p28
F0.04981345839836414
sS'u'
p29
F0.018931585915122912
sS't'
p30
F0.07041477317673293
sS'w'
p31
F0.051648035569709275
sS'v'
p32
F0.03239750557495367
sS'y'
p33
F0.04148597483012307
sS'x'
p34
F0.03953553990268877
sS'z'
p35
F0.03408060297911232
ssI2
(dp36
g9
F0.028414784536855975
sg10
F0.029986124869426447
sg11
F0.02849575134043091
sg12
F0.04638336631391197
sg13
F0.04158269168166652
sg14
F0.036718360524766326
sg15
F0.027542942651021113
sg16
F0.024806822410305393
sg17
F0.03578094802889227
sg18
F0.06657311094928793
sg19
F0.04074494773562736
sg20
F0.016716214653389332
sg21
F0.021830180047589465
sg22
F0.06371411076888062
sg23
F0.016609393338637892
sg24
F0.045207389104709214
sg25
F0.05600702254690412
sg26
F0.010968851948790251
sg27
F0.013400429095234317
sg28
F0.04502544080633768
sg29
F0.022616739331620037
sg30
F0.02890260675049866
sg31
F0.04267813487803265
sg32
F0.07294765196030456
sg33
F0.03520210816231488
sg34
F0.04316840363129398
sg35
F0.057975471933270024
ssI3
(dp37
g9
F0.038672100241029565
sg10
F0.04737934171453969
sg11
F0.018094827048936998
sg12
F0.07139620951863312
sg13
F0.04766646704116204
sg14
F0.045070539012823436
sg15
F0.027257349466100065
sg16
F0.03544474541516214
sg17
F0.0323357414375491
sg18
F0.021593738942246504
sg19
F0.03552180366721086
sg20
F0.05672719253059153
sg21
F0.046563542007381525
sg22
F0.04631946471860666
sg23
F0.02936801124249633
sg24
F0.021441497782042376
sg25
F0.0384521446605397
sg26
F0.03395394544537571
sg27
F0.06214325093359059
sg28
F0.046482261575247374
sg29
F0.04429193430440826
sg30
F0.031767262347208614
sg31
F0.022322185035681716
sg32
F0.04158180594483337
sg33
F0.015282806314344614
sg34
F0.030181962028236822
sg35
F0.012687869624021252
ssI4
(dp38
g9
F0.06193195657309477
sg10
F0.05726366648551091
sg11
F0.024745394162598272
sg12
F0.025399761646709283
sg13
F0.07075986715768459
sg14
F0.02117770703630498
sg15
F0.033652764640832035
sg16
F0.021601146442336912
sg17
F0.025493485468866366
sg18
F0.04475849402985064
sg19
F0.03327208557900045
sg20
F0.026356501766183503
sg21
F0.029902020515723257
sg22
F0.02280109014039363
sg23
F0.04851972340712518
sg24
F0.026441299870732564
sg25
F0.03537746291685278
sg26
F0.02569497045499541
sg27
F0.05304245906902298
sg28
F0.04411666319405292
sg29
F0.054488219080257305
sg30
F0.05948979109593243
sg31
F0.022682211360444786
sg32
F0.023578671660354284
sg33
F0.029213954604567653
sg34
F0.04240659964318961
sg35
F0.035832031997382434
ssa.