(lp0
(dp1
I1
F0.5
sI2
F0.5
sa(dp2
I1
(dp3
I1
F0.5
sI2
F0.5
ssI2
(dp4
I1
F0.5
sI2
F0.5
ssa(dp5
I1
(dp6
S'a'
p7
F0.14285714285714285
sS' '
p8
F0.14285714285714285
sS'c'
p9
F0.14285714285714285
sS'e'
p10
F0.14285714285714285
sS'h'
p11
F0.14285714285714285
sS'r'
p12
F0.14285714285714285
sS't'
p13
F0.14285714285714285
ssI2
(dp14
g7
F0.14285714285714285
sg8
F0.14285714285714285
sg9
F0.14285714285714285
sg10
F0.14285714285714285
sg11
F0.14285714285714285
sg12
F0.14285714285714285
sg13
F0.14285714285714285
ssa.